; Function Attrs: mustprogress nofree norecurse nosync nounwind willreturn memory(none) uwtable
define dso_local { i64, i64 } @i128_lshr64(i64 %0, i64 %1, i64 noundef %2) local_unnamed_addr #1 {
  %4 = icmp eq i64 %2, 0
  br i1 %4, label %20, label %5

5:                                                ; preds = %3
  %6 = icmp ugt i64 %2, 127
  br i1 %6, label %20, label %7

7:                                                ; preds = %5
  %8 = icmp eq i64 %2, 64
  br i1 %8, label %20, label %9

9:                                                ; preds = %7
  %10 = icmp samesign ugt i64 %2, 64
  br i1 %10, label %11, label %14

11:                                               ; preds = %9
  %12 = add nsw i64 %2, -64
  %13 = lshr i64 %0, %12
  br label %20

14:                                               ; preds = %9
  %15 = lshr i64 %1, %2
  %16 = sub nuw nsw i64 64, %2
  %17 = shl i64 %0, %16
  %18 = or disjoint i64 %17, %15
  %19 = lshr i64 %0, %2
  br label %20

20:                                               ; preds = %7, %5, %3, %14, %11
  %.sroa.015.0 = phi i64 [ 0, %11 ], [ %19, %14 ], [ %0, %3 ], [ 0, %5 ], [ 0, %7 ]
  %.sroa.6.0 = phi i64 [ %13, %11 ], [ %18, %14 ], [ %1, %3 ], [ 0, %5 ], [ %0, %7 ]
  %.fca.0.insert = insertvalue { i64, i64 } poison, i64 %.sroa.015.0, 0
  %.fca.1.insert = insertvalue { i64, i64 } %.fca.0.insert, i64 %.sroa.6.0, 1
  ret { i64, i64 } %.fca.1.insert
}